target datalayout = "e-m:e-p270:32:32-p271:32:32-p272:64:64-i64:64-i128:128-f80:128-n8:16:32:64-S128"
target triple = "x86_64-pc-linux-gnu"

%struct.UTransPosition = type { i32, i32, i32, i32 }

; Function Attrs: inlinehint mustprogress uwtable
define linkonce_odr noundef i32 @_ZNK6icu_7711Replaceable6lengthEv(ptr noundef nonnull align 8 dereferenceable(8) %0) #3 comdat align 2 {
  %2 = alloca ptr, align 8
  store ptr %0, ptr %2, align 8, !tbaa !42
  %3 = load ptr, ptr %2, align 8
  %4 = load ptr, ptr %3, align 8, !tbaa !29
  %5 = getelementptr inbounds ptr, ptr %4, i64 8
  %6 = load ptr, ptr %5, align 8
  %7 = call noundef i32 %6(ptr noundef nonnull align 8 dereferenceable(8) %3)
  ret i32 %7
}

; Function Attrs: mustprogress uwtable
define noundef i32 @_ZNK6icu_7714Transliterator13transliterateERNS_11ReplaceableEii(ptr noundef nonnull align 8 dereferenceable(84) %0, ptr noundef nonnull align 8 dereferenceable(8) %1, i32 noundef %2, i32 noundef %3) unnamed_addr #1 align 2 {
  %5 = alloca i32, align 4
  %6 = alloca ptr, align 8
  %7 = alloca ptr, align 8
  %8 = alloca i32, align 4
  %9 = alloca i32, align 4
  %10 = alloca %struct.UTransPosition, align 4
  store ptr %0, ptr %6, align 8, !tbaa !23
  store ptr %1, ptr %7, align 8, !tbaa !42
  store i32 %2, ptr %8, align 4, !tbaa !14
  store i32 %3, ptr %9, align 4, !tbaa !14
  %11 = load ptr, ptr %6, align 8
  %12 = load i32, ptr %8, align 4, !tbaa !14
  %13 = icmp slt i32 %12, 0
  br i1 %13, label %23, label %14

14:                                               ; preds = %4
  %15 = load i32, ptr %9, align 4, !tbaa !14
  %16 = load i32, ptr %8, align 4, !tbaa !14
  %17 = icmp slt i32 %15, %16
  br i1 %17, label %23, label %18

18:                                               ; preds = %14
  %19 = load ptr, ptr %7, align 8, !tbaa !42
  %20 = call noundef i32 @_ZNK6icu_7711Replaceable6lengthEv(ptr noundef nonnull align 8 dereferenceable(8) %19)
  %21 = load i32, ptr %9, align 4, !tbaa !14
  %22 = icmp slt i32 %20, %21
  br i1 %22, label %23, label %24

23:                                               ; preds = %18, %14, %4
  store i32 -1, ptr %5, align 4
  br label %39

24:                                               ; preds = %18
  call void @llvm.lifetime.start.p0(i64 16, ptr %10) #15
  %25 = load i32, ptr %8, align 4, !tbaa !14
  %26 = getelementptr inbounds nuw %struct.UTransPosition, ptr %10, i32 0, i32 0
  store i32 %25, ptr %26, align 4, !tbaa !44
  %27 = load i32, ptr %9, align 4, !tbaa !14
  %28 = getelementptr inbounds nuw %struct.UTransPosition, ptr %10, i32 0, i32 1
  store i32 %27, ptr %28, align 4, !tbaa !46
  %29 = load i32, ptr %8, align 4, !tbaa !14
  %30 = getelementptr inbounds nuw %struct.UTransPosition, ptr %10, i32 0, i32 2
  store i32 %29, ptr %30, align 4, !tbaa !47
  %31 = load i32, ptr %9, align 4, !tbaa !14
  %32 = getelementptr inbounds nuw %struct.UTransPosition, ptr %10, i32 0, i32 3
  store i32 %31, ptr %32, align 4, !tbaa !48
  %33 = load ptr, ptr %7, align 8, !tbaa !42
  %34 = load ptr, ptr %11, align 8, !tbaa !29
  %35 = getelementptr inbounds ptr, ptr %34, i64 12
  %36 = load ptr, ptr %35, align 8
  call void %36(ptr noundef nonnull align 8 dereferenceable(84) %11, ptr noundef nonnull align 8 dereferenceable(8) %33, ptr noundef nonnull align 4 dereferenceable(16) %10, i8 noundef signext 0, i8 noundef signext 1)
  %37 = getelementptr inbounds nuw %struct.UTransPosition, ptr %10, i32 0, i32 3
  %38 = load i32, ptr %37, align 4, !tbaa !48
  store i32 %38, ptr %5, align 4
  call void @llvm.lifetime.end.p0(i64 16, ptr %10) #15
  br label %39

39:                                               ; preds = %24, %23
  %40 = load i32, ptr %5, align 4
  ret i32 %40
}