; Function Attrs: mustprogress uwtable
define noundef i32 @_ZNK6icu_7714Transliterator13transliterateERNS_11ReplaceableEii(ptr noundef nonnull align 8 dereferenceable(84) %0, ptr noundef nonnull align 8 dereferenceable(8) %1, i32 noundef %2, i32 noundef %3) unnamed_addr #1 align 2 {
  %5 = alloca %struct.UTransPosition, align 4
  %6 = icmp slt i32 %2, 0
  %7 = icmp slt i32 %3, %2
  %or.cond = or i1 %6, %7
  br i1 %or.cond, label %22, label %8

8:                                                ; preds = %4
  %9 = load ptr, ptr %1, align 8, !tbaa !15
  %10 = getelementptr inbounds nuw i8, ptr %9, i64 64
  %11 = load ptr, ptr %10, align 8
  %12 = tail call noundef i32 %11(ptr noundef nonnull align 8 dereferenceable(8) %1)
  %13 = icmp slt i32 %12, %3
  br i1 %13, label %22, label %14

14:                                               ; preds = %8
  call void @llvm.lifetime.start.p0(i64 16, ptr nonnull %5) #21
  store i32 %2, ptr %5, align 4, !tbaa !27
  %15 = getelementptr inbounds nuw i8, ptr %5, i64 4
  store i32 %3, ptr %15, align 4, !tbaa !29
  %16 = getelementptr inbounds nuw i8, ptr %5, i64 8
  store i32 %2, ptr %16, align 4, !tbaa !30
  %17 = getelementptr inbounds nuw i8, ptr %5, i64 12
  store i32 %3, ptr %17, align 4, !tbaa !31
  %18 = load ptr, ptr %0, align 8, !tbaa !15
  %19 = getelementptr inbounds nuw i8, ptr %18, i64 96
  %20 = load ptr, ptr %19, align 8
  call void %20(ptr noundef nonnull align 8 dereferenceable(84) %0, ptr noundef nonnull align 8 dereferenceable(8) %1, ptr noundef nonnull align 4 dereferenceable(16) %5, i8 noundef signext 0, i8 noundef signext 1)
  %21 = load i32, ptr %17, align 4, !tbaa !31
  call void @llvm.lifetime.end.p0(i64 16, ptr nonnull %5) #21
  br label %22

22:                                               ; preds = %4, %8, %14
  %.0 = phi i32 [ %21, %14 ], [ -1, %8 ], [ -1, %4 ]
  ret i32 %.0
}